target datalayout = "e-m:e-p270:32:32-p271:32:32-p272:64:64-i64:64-i128:128-f80:128-n8:16:32:64-S128"
target triple = "x86_64-pc-linux-gnu"

%struct.Ivy_Man_t_ = type { ptr, ptr, ptr, ptr, ptr, %struct.Ivy_Obj_t_, [8 x i32], i32, i32, ptr, i32, i32, i32, i32, ptr, i32, ptr, ptr, ptr, i32, ptr, ptr, ptr, i64, i64 }
%struct.Ivy_Obj_t_ = type { i32, i32, i32, i32, ptr, ptr, ptr, ptr, ptr, ptr, ptr, ptr }
%struct.Ivy_FraigMan_t_ = type { ptr, i64, i64, ptr, ptr, i32, ptr, ptr, i32, ptr, ptr, %struct.Ivy_FraigList_t_, %struct.Ivy_FraigList_t_, i32, ptr, i32, ptr, ptr, i32, i32, i32, i32, i32, i32, i32, i32, i32, i32, i32, i32, i32, i64, i64, i64, i64, i64, i64, i64, i64, i64, i64 }
%struct.Ivy_FraigList_t_ = type { ptr, ptr, i32 }
%struct.timespec = type { i64, i64 }

; Function Attrs: inlinehint nounwind uwtable
define internal i64 @Abc_Clock() #4 {
  %1 = alloca i64, align 8
  %2 = alloca %struct.timespec, align 8
  %3 = alloca i32, align 4
  %4 = alloca i64, align 8
  call void @llvm.lifetime.start.p0(i64 16, ptr %2) #12
  %5 = call i32 @clock_gettime(i32 noundef 1, ptr noundef %2) #12
  %6 = icmp slt i32 %5, 0
  br i1 %6, label %7, label %8

7:                                                ; preds = %0
  store i64 -1, ptr %1, align 8
  store i32 1, ptr %3, align 4
  br label %19

8:                                                ; preds = %0
  call void @llvm.lifetime.start.p0(i64 8, ptr %4) #12
  %9 = getelementptr inbounds nuw %struct.timespec, ptr %2, i32 0, i32 0
  %10 = load i64, ptr %9, align 8, !tbaa !260
  %11 = mul nsw i64 %10, 1000000
  store i64 %11, ptr %4, align 8, !tbaa !25
  %12 = getelementptr inbounds nuw %struct.timespec, ptr %2, i32 0, i32 1
  %13 = load i64, ptr %12, align 8, !tbaa !262
  %14 = mul nsw i64 %13, 1000000
  %15 = sdiv i64 %14, 1000000000
  %16 = load i64, ptr %4, align 8, !tbaa !25
  %17 = add nsw i64 %16, %15
  store i64 %17, ptr %4, align 8, !tbaa !25
  %18 = load i64, ptr %4, align 8, !tbaa !25
  store i64 %18, ptr %1, align 8
  store i32 1, ptr %3, align 4
  call void @llvm.lifetime.end.p0(i64 8, ptr %4) #12
  br label %19

19:                                               ; preds = %8, %7
  call void @llvm.lifetime.end.p0(i64 16, ptr %2) #12
  %20 = load i64, ptr %1, align 8
  ret i64 %20
}

; Function Attrs: inlinehint nounwind uwtable
define internal i32 @Ivy_ManNodeNum(ptr noundef %0) #4 {
  %2 = alloca ptr, align 8
  store ptr %0, ptr %2, align 8, !tbaa !27
  %3 = load ptr, ptr %2, align 8, !tbaa !27
  %4 = getelementptr inbounds nuw %struct.Ivy_Man_t_, ptr %3, i32 0, i32 6
  %5 = getelementptr inbounds [8 x i32], ptr %4, i64 0, i64 5
  %6 = load i32, ptr %5, align 4, !tbaa !44
  %7 = load ptr, ptr %2, align 8, !tbaa !27
  %8 = getelementptr inbounds nuw %struct.Ivy_Man_t_, ptr %7, i32 0, i32 6
  %9 = getelementptr inbounds [8 x i32], ptr %8, i64 0, i64 6
  %10 = load i32, ptr %9, align 8, !tbaa !44
  %11 = add nsw i32 %6, %10
  ret i32 %11
}

; Function Attrs: nounwind uwtable
define ptr @Ivy_FraigPerform(ptr noundef %0, ptr noundef %1) #0 {
  %3 = alloca ptr, align 8
  %4 = alloca ptr, align 8
  %5 = alloca ptr, align 8
  %6 = alloca ptr, align 8
  %7 = alloca ptr, align 8
  %8 = alloca i64, align 8
  %9 = alloca i32, align 4
  store ptr %0, ptr %4, align 8, !tbaa !27
  store ptr %1, ptr %5, align 8, !tbaa !3
  call void @llvm.lifetime.start.p0(i64 8, ptr %6) #12
  call void @llvm.lifetime.start.p0(i64 8, ptr %7) #12
  call void @llvm.lifetime.start.p0(i64 8, ptr %8) #12
  %10 = load ptr, ptr %4, align 8, !tbaa !27
  %11 = call i32 @Ivy_ManNodeNum(ptr noundef %10)
  %12 = icmp eq i32 %11, 0
  br i1 %12, label %13, label %16

13:                                               ; preds = %2
  %14 = load ptr, ptr %4, align 8, !tbaa !27
  %15 = call ptr @Ivy_ManDup(ptr noundef %14)
  store ptr %15, ptr %3, align 8
  store i32 1, ptr %9, align 4
  br label %33

16:                                               ; preds = %2
  %17 = call i64 @Abc_Clock()
  store i64 %17, ptr %8, align 8, !tbaa !25
  %18 = load ptr, ptr %4, align 8, !tbaa !27
  %19 = load ptr, ptr %5, align 8, !tbaa !3
  %20 = call ptr @Ivy_FraigStart(ptr noundef %18, ptr noundef %19)
  store ptr %20, ptr %6, align 8, !tbaa !60
  %21 = load ptr, ptr %6, align 8, !tbaa !60
  call void @Ivy_FraigSimulate(ptr noundef %21)
  %22 = load ptr, ptr %6, align 8, !tbaa !60
  call void @Ivy_FraigSweep(ptr noundef %22)
  %23 = load ptr, ptr %6, align 8, !tbaa !60
  %24 = getelementptr inbounds nuw %struct.Ivy_FraigMan_t_, ptr %23, i32 0, i32 4
  %25 = load ptr, ptr %24, align 8, !tbaa !73
  store ptr %25, ptr %7, align 8, !tbaa !27
  %26 = call i64 @Abc_Clock()
  %27 = load i64, ptr %8, align 8, !tbaa !25
  %28 = sub nsw i64 %26, %27
  %29 = load ptr, ptr %6, align 8, !tbaa !60
  %30 = getelementptr inbounds nuw %struct.Ivy_FraigMan_t_, ptr %29, i32 0, i32 38
  store i64 %28, ptr %30, align 8, !tbaa !81
  %31 = load ptr, ptr %6, align 8, !tbaa !60
  call void @Ivy_FraigStop(ptr noundef %31)
  %32 = load ptr, ptr %7, align 8, !tbaa !27
  store ptr %32, ptr %3, align 8
  store i32 1, ptr %9, align 4
  br label %33

33:                                               ; preds = %16, %13
  call void @llvm.lifetime.end.p0(i64 8, ptr %8) #12
  call void @llvm.lifetime.end.p0(i64 8, ptr %7) #12
  call void @llvm.lifetime.end.p0(i64 8, ptr %6) #12
  %34 = load ptr, ptr %3, align 8
  ret ptr %34
}