; Function Attrs: nounwind uwtable
define ptr @Ivy_FraigPerform(ptr noundef %0, ptr noundef %1) local_unnamed_addr #2 {
  %3 = alloca %struct.timespec, align 8
  %4 = alloca %struct.timespec, align 8
  %5 = getelementptr i8, ptr %0, i64 140
  %.val = load i32, ptr %5, align 4, !tbaa !38
  %6 = getelementptr i8, ptr %0, i64 144
  %.val11 = load i32, ptr %6, align 8, !tbaa !38
  %7 = sub i32 0, %.val
  %8 = icmp eq i32 %.val11, %7
  br i1 %8, label %9, label %11

9:                                                ; preds = %2
  %10 = tail call ptr @Ivy_ManDup(ptr noundef nonnull %0) #26
  br label %32

11:                                               ; preds = %2
  call void @llvm.lifetime.start.p0(i64 16, ptr nonnull %4) #26
  %12 = call i32 @clock_gettime(i32 noundef 1, ptr noundef nonnull %4) #26
  %13 = icmp slt i32 %12, 0
  br i1 %13, label %Abc_Clock.exit, label %14

14:                                               ; preds = %11
  %15 = load i64, ptr %4, align 8, !tbaa !35
  %.neg14 = mul i64 %15, -1000000
  %16 = getelementptr inbounds nuw i8, ptr %4, i64 8
  %17 = load i64, ptr %16, align 8, !tbaa !37
  %.neg = sdiv i64 %17, -1000
  %.neg15 = add i64 %.neg, %.neg14
  br label %Abc_Clock.exit

Abc_Clock.exit:                                   ; preds = %11, %14
  %.0.i.neg = phi i64 [ %.neg15, %14 ], [ 1, %11 ]
  call void @llvm.lifetime.end.p0(i64 16, ptr nonnull %4) #26
  %18 = call fastcc ptr @Ivy_FraigStart(ptr noundef nonnull %0, ptr noundef %1)
  call fastcc void @Ivy_FraigSimulate(ptr noundef %18)
  call fastcc void @Ivy_FraigSweep(ptr noundef %18)
  %19 = getelementptr inbounds nuw i8, ptr %18, i64 32
  %20 = load ptr, ptr %19, align 8, !tbaa !69
  call void @llvm.lifetime.start.p0(i64 16, ptr nonnull %3) #26
  %21 = call i32 @clock_gettime(i32 noundef 1, ptr noundef nonnull %3) #26
  %22 = icmp slt i32 %21, 0
  br i1 %22, label %Abc_Clock.exit13, label %23

23:                                               ; preds = %Abc_Clock.exit
  %24 = load i64, ptr %3, align 8, !tbaa !35
  %25 = mul nsw i64 %24, 1000000
  %26 = getelementptr inbounds nuw i8, ptr %3, i64 8
  %27 = load i64, ptr %26, align 8, !tbaa !37
  %28 = sdiv i64 %27, 1000
  %29 = add nsw i64 %28, %25
  br label %Abc_Clock.exit13

Abc_Clock.exit13:                                 ; preds = %Abc_Clock.exit, %23
  %.0.i12 = phi i64 [ %29, %23 ], [ -1, %Abc_Clock.exit ]
  call void @llvm.lifetime.end.p0(i64 16, ptr nonnull %3) #26
  %30 = add i64 %.0.i12, %.0.i.neg
  %31 = getelementptr inbounds nuw i8, ptr %18, i64 288
  store i64 %30, ptr %31, align 8, !tbaa !70
  call fastcc void @Ivy_FraigStop(ptr noundef nonnull %18)
  br label %32

32:                                               ; preds = %Abc_Clock.exit13, %9
  %.0 = phi ptr [ %10, %9 ], [ %20, %Abc_Clock.exit13 ]
  ret ptr %.0
}